; ModuleID = '54/236.c'
source_filename = "54/236.c"
target datalayout = "e-m:e-p270:32:32-p271:32:32-p272:64:64-i64:64-f80:128-n8:16:32:64-S128"
target triple = "x86_64-pc-linux-gnu"

@.str = private unnamed_addr constant [6 x i8] c"%d %d\00", align 1
@.str.1 = private unnamed_addr constant [4 x i8] c"%d\0A\00", align 1

; Function Attrs: noinline nounwind uwtable
define dso_local void @main() #0 {
  %1 = alloca i32, align 4
  %2 = alloca i32, align 4
  %3 = alloca i32, align 4
  %4 = alloca i32, align 4
  %5 = alloca i32, align 4
  %6 = call i32 (i8*, ...) @__isoc99_scanf(i8* getelementptr inbounds ([6 x i8], [6 x i8]* @.str, i64 0, i64 0), i32* %1, i32* %2)
  store i32 1, i32* %4, align 4
  br label %7

7:                                                ; preds = %45, %0
  %8 = load i32, i32* %4, align 4
  %9 = icmp slt i32 %8, 10000000
  br i1 %9, label %10, label %48

10:                                               ; preds = %7
  %11 = load i32, i32* %1, align 4
  %12 = load i32, i32* %4, align 4
  %13 = mul nsw i32 %11, %12
  %14 = load i32, i32* %2, align 4
  %15 = add nsw i32 %13, %14
  store i32 %15, i32* %3, align 4
  store i32 1, i32* %5, align 4
  br label %16

16:                                               ; preds = %38, %10
  %17 = load i32, i32* %5, align 4
  %18 = load i32, i32* %1, align 4
  %19 = icmp slt i32 %17, %18
  br i1 %19, label %20, label %39

20:                                               ; preds = %16
  %21 = load i32, i32* %3, align 4
  %22 = load i32, i32* %1, align 4
  %23 = sub nsw i32 %22, 1
  %24 = srem i32 %21, %23
  %25 = icmp eq i32 %24, 0
  br i1 %25, label %26, label %37

26:                                               ; preds = %20
  %27 = load i32, i32* %3, align 4
  %28 = load i32, i32* %1, align 4
  %29 = mul nsw i32 %27, %28
  %30 = load i32, i32* %1, align 4
  %31 = sub nsw i32 %30, 1
  %32 = sdiv i32 %29, %31
  %33 = load i32, i32* %2, align 4
  %34 = add nsw i32 %32, %33
  store i32 %34, i32* %3, align 4
  %35 = load i32, i32* %5, align 4
  %36 = add nsw i32 %35, 1
  store i32 %36, i32* %5, align 4
  br label %38

37:                                               ; preds = %20
  br label %39

38:                                               ; preds = %26
  br label %16

39:                                               ; preds = %37, %16
  %40 = load i32, i32* %5, align 4
  %41 = load i32, i32* %1, align 4
  %42 = icmp eq i32 %40, %41
  br i1 %42, label %43, label %44

43:                                               ; preds = %39
  br label %48

44:                                               ; preds = %39
  br label %45

45:                                               ; preds = %44
  %46 = load i32, i32* %4, align 4
  %47 = add nsw i32 %46, 1
  store i32 %47, i32* %4, align 4
  br label %7

48:                                               ; preds = %43, %7
  %49 = load i32, i32* %3, align 4
  %50 = call i32 (i8*, ...) @printf(i8* getelementptr inbounds ([4 x i8], [4 x i8]* @.str.1, i64 0, i64 0), i32 %49)
  ret void
}

declare dso_local i32 @__isoc99_scanf(i8*, ...) #1

declare dso_local i32 @printf(i8*, ...) #1


!llvm.module.flags = !{!0}
!llvm.ident = !{!1}

!0 = !{i32 1, !"wchar_size", i32 4}
!1 = !{!"clang version 10.0.0-4ubuntu1 "}
