; ModuleID = 'source-C-CXX/53/236.c'
source_filename = "source-C-CXX/53/236.c"
target datalayout = "e-m:e-p270:32:32-p271:32:32-p272:64:64-i64:64-f80:128-n8:16:32:64-S128"
target triple = "x86_64-pc-linux-gnu"

@.str = private unnamed_addr constant [6 x i8] c"%d %d\00", align 1
@.str.1 = private unnamed_addr constant [4 x i8] c"%d\0A\00", align 1

; Function Attrs: nofree nounwind sspstrong uwtable
define dso_local void @main() local_unnamed_addr #0 {
  %1 = alloca i32, align 4
  %2 = alloca i32, align 4
  %3 = bitcast i32* %1 to i8*
  call void @llvm.lifetime.start.p0i8(i64 4, i8* nonnull %3) #3
  %4 = bitcast i32* %2 to i8*
  call void @llvm.lifetime.start.p0i8(i64 4, i8* nonnull %4) #3
  %5 = call i32 (i8*, ...) @__isoc99_scanf(i8* getelementptr inbounds ([6 x i8], [6 x i8]* @.str, i64 0, i64 0), i32* nonnull %1, i32* nonnull %2)
  %6 = load i32, i32* %1, align 4
  %7 = load i32, i32* %2, align 4
  %8 = add nsw i32 %6, -1
  %9 = icmp sgt i32 %6, 1
  br i1 %9, label %10, label %30

10:                                               ; preds = %0, %19
  %11 = phi i32 [ %21, %19 ], [ 1, %0 ]
  %12 = mul nsw i32 %6, %11
  %13 = add nsw i32 %12, %7
  br label %14

14:                                               ; preds = %10, %24
  %15 = phi i32 [ %13, %10 ], [ %28, %24 ]
  %16 = phi i32 [ 1, %10 ], [ %27, %24 ]
  %17 = srem i32 %15, %8
  %18 = icmp eq i32 %17, 0
  br i1 %18, label %24, label %19

19:                                               ; preds = %14
  %20 = icmp ne i32 %16, %6
  %21 = add nuw nsw i32 %11, 1
  %22 = icmp ult i32 %11, 9999999
  %23 = select i1 %20, i1 %22, i1 false
  br i1 %23, label %10, label %35, !llvm.loop !5

24:                                               ; preds = %14
  %25 = mul nsw i32 %15, %6
  %26 = sdiv i32 %25, %8
  %27 = add nuw nsw i32 %16, 1
  %28 = add nsw i32 %26, %7
  %29 = icmp eq i32 %27, %6
  br i1 %29, label %35, label %14, !llvm.loop !7

30:                                               ; preds = %0
  %31 = icmp eq i32 %6, 1
  %32 = select i1 %31, i32 1, i32 9999999
  %33 = mul nsw i32 %6, %32
  %34 = add nsw i32 %33, %7
  br label %35

35:                                               ; preds = %19, %24, %30
  %36 = phi i32 [ %34, %30 ], [ %28, %24 ], [ %15, %19 ]
  %37 = call i32 (i8*, ...) @printf(i8* nonnull dereferenceable(1) getelementptr inbounds ([4 x i8], [4 x i8]* @.str.1, i64 0, i64 0), i32 %36)
  call void @llvm.lifetime.end.p0i8(i64 4, i8* nonnull %4) #3
  call void @llvm.lifetime.end.p0i8(i64 4, i8* nonnull %3) #3
  ret void
}

; Function Attrs: argmemonly mustprogress nofree nosync nounwind willreturn
declare void @llvm.lifetime.start.p0i8(i64 immarg, i8* nocapture) #1

; Function Attrs: nofree nounwind
declare noundef i32 @__isoc99_scanf(i8* nocapture noundef readonly, ...) local_unnamed_addr #2

; Function Attrs: nofree nounwind
declare noundef i32 @printf(i8* nocapture noundef readonly, ...) local_unnamed_addr #2

; Function Attrs: argmemonly mustprogress nofree nosync nounwind willreturn
declare void @llvm.lifetime.end.p0i8(i64 immarg, i8* nocapture) #1


!llvm.module.flags = !{!0, !1, !2, !3}
!llvm.ident = !{!4}

!0 = !{i32 1, !"wchar_size", i32 4}
!1 = !{i32 7, !"PIC Level", i32 2}
!2 = !{i32 7, !"PIE Level", i32 2}
!3 = !{i32 7, !"uwtable", i32 1}
!4 = !{!"clang version 13.0.0"}
!5 = distinct !{!5, !6}
!6 = !{!"llvm.loop.mustprogress"}
!7 = distinct !{!7, !6}
